; ModuleID = '31/230.c'
source_filename = "31/230.c"
target datalayout = "e-m:e-p270:32:32-p271:32:32-p272:64:64-i64:64-f80:128-n8:16:32:64-S128"
target triple = "x86_64-pc-linux-gnu"

%struct.student = type { [20 x i8], [30 x i8], i8, i32, [30 x i8], [30 x i8], %struct.student*, %struct.student* }

@n = common dso_local global i32 0, align 4
@.str = private unnamed_addr constant [18 x i8] c"%s %s %c %d %s %s\00", align 1
@.str.1 = private unnamed_addr constant [4 x i8] c"end\00", align 1
@.str.2 = private unnamed_addr constant [19 x i8] c"%s %s %c %d %s %s\0A\00", align 1

; Function Attrs: noinline nounwind uwtable
define dso_local void @main() #0 {
  %1 = alloca %struct.student*, align 8
  %2 = alloca %struct.student*, align 8
  %3 = alloca %struct.student*, align 8
  store i32 0, i32* @n, align 4
  %4 = call noalias i8* @malloc(i64 100) #4
  %5 = bitcast i8* %4 to %struct.student*
  store %struct.student* %5, %struct.student** %2, align 8
  store %struct.student* %5, %struct.student** %1, align 8
  %6 = load %struct.student*, %struct.student** %1, align 8
  %7 = getelementptr inbounds %struct.student, %struct.student* %6, i32 0, i32 0
  %8 = getelementptr inbounds [20 x i8], [20 x i8]* %7, i64 0, i64 0
  %9 = load %struct.student*, %struct.student** %1, align 8
  %10 = getelementptr inbounds %struct.student, %struct.student* %9, i32 0, i32 1
  %11 = getelementptr inbounds [30 x i8], [30 x i8]* %10, i64 0, i64 0
  %12 = load %struct.student*, %struct.student** %1, align 8
  %13 = getelementptr inbounds %struct.student, %struct.student* %12, i32 0, i32 2
  %14 = load %struct.student*, %struct.student** %1, align 8
  %15 = getelementptr inbounds %struct.student, %struct.student* %14, i32 0, i32 3
  %16 = load %struct.student*, %struct.student** %1, align 8
  %17 = getelementptr inbounds %struct.student, %struct.student* %16, i32 0, i32 4
  %18 = getelementptr inbounds [30 x i8], [30 x i8]* %17, i64 0, i64 0
  %19 = load %struct.student*, %struct.student** %1, align 8
  %20 = getelementptr inbounds %struct.student, %struct.student* %19, i32 0, i32 5
  %21 = getelementptr inbounds [30 x i8], [30 x i8]* %20, i64 0, i64 0
  %22 = call i32 (i8*, ...) @__isoc99_scanf(i8* getelementptr inbounds ([18 x i8], [18 x i8]* @.str, i64 0, i64 0), i8* %8, i8* %11, i8* %13, i32* %15, i8* %18, i8* %21)
  store %struct.student* null, %struct.student** %3, align 8
  br label %23

23:                                               ; preds = %42, %0
  %24 = load %struct.student*, %struct.student** %1, align 8
  %25 = getelementptr inbounds %struct.student, %struct.student* %24, i32 0, i32 0
  %26 = getelementptr inbounds [20 x i8], [20 x i8]* %25, i64 0, i64 0
  %27 = call i32 @strcmp(i8* %26, i8* getelementptr inbounds ([4 x i8], [4 x i8]* @.str.1, i64 0, i64 0)) #5
  %28 = icmp ne i32 %27, 0
  br i1 %28, label %29, label %66

29:                                               ; preds = %23
  %30 = load i32, i32* @n, align 4
  %31 = add nsw i32 %30, 1
  store i32 %31, i32* @n, align 4
  %32 = load i32, i32* @n, align 4
  %33 = icmp eq i32 %32, 1
  br i1 %33, label %34, label %38

34:                                               ; preds = %29
  %35 = load %struct.student*, %struct.student** %1, align 8
  %36 = getelementptr inbounds %struct.student, %struct.student* %35, i32 0, i32 7
  store %struct.student* null, %struct.student** %36, align 8
  %37 = load %struct.student*, %struct.student** %1, align 8
  store %struct.student* %37, %struct.student** %3, align 8
  br label %42

38:                                               ; preds = %29
  %39 = load %struct.student*, %struct.student** %1, align 8
  %40 = load %struct.student*, %struct.student** %2, align 8
  %41 = getelementptr inbounds %struct.student, %struct.student* %40, i32 0, i32 6
  store %struct.student* %39, %struct.student** %41, align 8
  br label %42

42:                                               ; preds = %38, %34
  %43 = load %struct.student*, %struct.student** %2, align 8
  %44 = load %struct.student*, %struct.student** %1, align 8
  %45 = getelementptr inbounds %struct.student, %struct.student* %44, i32 0, i32 7
  store %struct.student* %43, %struct.student** %45, align 8
  %46 = load %struct.student*, %struct.student** %1, align 8
  store %struct.student* %46, %struct.student** %2, align 8
  %47 = call noalias i8* @malloc(i64 100) #4
  %48 = bitcast i8* %47 to %struct.student*
  store %struct.student* %48, %struct.student** %1, align 8
  %49 = load %struct.student*, %struct.student** %1, align 8
  %50 = getelementptr inbounds %struct.student, %struct.student* %49, i32 0, i32 0
  %51 = getelementptr inbounds [20 x i8], [20 x i8]* %50, i64 0, i64 0
  %52 = load %struct.student*, %struct.student** %1, align 8
  %53 = getelementptr inbounds %struct.student, %struct.student* %52, i32 0, i32 1
  %54 = getelementptr inbounds [30 x i8], [30 x i8]* %53, i64 0, i64 0
  %55 = load %struct.student*, %struct.student** %1, align 8
  %56 = getelementptr inbounds %struct.student, %struct.student* %55, i32 0, i32 2
  %57 = load %struct.student*, %struct.student** %1, align 8
  %58 = getelementptr inbounds %struct.student, %struct.student* %57, i32 0, i32 3
  %59 = load %struct.student*, %struct.student** %1, align 8
  %60 = getelementptr inbounds %struct.student, %struct.student* %59, i32 0, i32 4
  %61 = getelementptr inbounds [30 x i8], [30 x i8]* %60, i64 0, i64 0
  %62 = load %struct.student*, %struct.student** %1, align 8
  %63 = getelementptr inbounds %struct.student, %struct.student* %62, i32 0, i32 5
  %64 = getelementptr inbounds [30 x i8], [30 x i8]* %63, i64 0, i64 0
  %65 = call i32 (i8*, ...) @__isoc99_scanf(i8* getelementptr inbounds ([18 x i8], [18 x i8]* @.str, i64 0, i64 0), i8* %51, i8* %54, i8* %56, i32* %58, i8* %61, i8* %64)
  br label %23

66:                                               ; preds = %23
  %67 = load %struct.student*, %struct.student** %2, align 8
  %68 = getelementptr inbounds %struct.student, %struct.student* %67, i32 0, i32 6
  store %struct.student* null, %struct.student** %68, align 8
  br label %69

69:                                               ; preds = %121, %66
  %70 = load %struct.student*, %struct.student** %2, align 8
  %71 = icmp ne %struct.student* %70, null
  br i1 %71, label %72, label %122

72:                                               ; preds = %69
  %73 = load %struct.student*, %struct.student** %2, align 8
  %74 = load %struct.student*, %struct.student** %3, align 8
  %75 = icmp ne %struct.student* %73, %74
  br i1 %75, label %76, label %100

76:                                               ; preds = %72
  %77 = load %struct.student*, %struct.student** %2, align 8
  %78 = getelementptr inbounds %struct.student, %struct.student* %77, i32 0, i32 0
  %79 = getelementptr inbounds [20 x i8], [20 x i8]* %78, i64 0, i64 0
  %80 = load %struct.student*, %struct.student** %2, align 8
  %81 = getelementptr inbounds %struct.student, %struct.student* %80, i32 0, i32 1
  %82 = getelementptr inbounds [30 x i8], [30 x i8]* %81, i64 0, i64 0
  %83 = load %struct.student*, %struct.student** %2, align 8
  %84 = getelementptr inbounds %struct.student, %struct.student* %83, i32 0, i32 2
  %85 = load i8, i8* %84, align 2
  %86 = sext i8 %85 to i32
  %87 = load %struct.student*, %struct.student** %2, align 8
  %88 = getelementptr inbounds %struct.student, %struct.student* %87, i32 0, i32 3
  %89 = load i32, i32* %88, align 4
  %90 = load %struct.student*, %struct.student** %2, align 8
  %91 = getelementptr inbounds %struct.student, %struct.student* %90, i32 0, i32 4
  %92 = getelementptr inbounds [30 x i8], [30 x i8]* %91, i64 0, i64 0
  %93 = load %struct.student*, %struct.student** %2, align 8
  %94 = getelementptr inbounds %struct.student, %struct.student* %93, i32 0, i32 5
  %95 = getelementptr inbounds [30 x i8], [30 x i8]* %94, i64 0, i64 0
  %96 = call i32 (i8*, ...) @printf(i8* getelementptr inbounds ([19 x i8], [19 x i8]* @.str.2, i64 0, i64 0), i8* %79, i8* %82, i32 %86, i32 %89, i8* %92, i8* %95)
  %97 = load %struct.student*, %struct.student** %2, align 8
  %98 = getelementptr inbounds %struct.student, %struct.student* %97, i32 0, i32 7
  %99 = load %struct.student*, %struct.student** %98, align 8
  store %struct.student* %99, %struct.student** %2, align 8
  br label %121

100:                                              ; preds = %72
  %101 = load %struct.student*, %struct.student** %3, align 8
  %102 = getelementptr inbounds %struct.student, %struct.student* %101, i32 0, i32 0
  %103 = getelementptr inbounds [20 x i8], [20 x i8]* %102, i64 0, i64 0
  %104 = load %struct.student*, %struct.student** %3, align 8
  %105 = getelementptr inbounds %struct.student, %struct.student* %104, i32 0, i32 1
  %106 = getelementptr inbounds [30 x i8], [30 x i8]* %105, i64 0, i64 0
  %107 = load %struct.student*, %struct.student** %3, align 8
  %108 = getelementptr inbounds %struct.student, %struct.student* %107, i32 0, i32 2
  %109 = load i8, i8* %108, align 2
  %110 = sext i8 %109 to i32
  %111 = load %struct.student*, %struct.student** %3, align 8
  %112 = getelementptr inbounds %struct.student, %struct.student* %111, i32 0, i32 3
  %113 = load i32, i32* %112, align 4
  %114 = load %struct.student*, %struct.student** %3, align 8
  %115 = getelementptr inbounds %struct.student, %struct.student* %114, i32 0, i32 4
  %116 = getelementptr inbounds [30 x i8], [30 x i8]* %115, i64 0, i64 0
  %117 = load %struct.student*, %struct.student** %3, align 8
  %118 = getelementptr inbounds %struct.student, %struct.student* %117, i32 0, i32 5
  %119 = getelementptr inbounds [30 x i8], [30 x i8]* %118, i64 0, i64 0
  %120 = call i32 (i8*, ...) @printf(i8* getelementptr inbounds ([19 x i8], [19 x i8]* @.str.2, i64 0, i64 0), i8* %103, i8* %106, i32 %110, i32 %113, i8* %116, i8* %119)
  br label %122

121:                                              ; preds = %76
  br label %69

122:                                              ; preds = %100, %69
  ret void
}

; Function Attrs: nounwind
declare dso_local noalias i8* @malloc(i64) #1

declare dso_local i32 @__isoc99_scanf(i8*, ...) #2

; Function Attrs: nounwind readonly
declare dso_local i32 @strcmp(i8*, i8*) #3

declare dso_local i32 @printf(i8*, ...) #2


!llvm.module.flags = !{!0}
!llvm.ident = !{!1}

!0 = !{i32 1, !"wchar_size", i32 4}
!1 = !{!"clang version 10.0.0-4ubuntu1 "}
